
BaremetalF410rb.elf:     file format elf32-littlearm

Sections:
Idx Name          Size      VMA       LMA       File off  Algn
  0 .isr_vector   000001c8  08000000  08000000  00001000  2**0
                  CONTENTS, ALLOC, LOAD, READONLY, DATA
  1 .text         000005cc  080001c8  080001c8  000011c8  2**2
                  CONTENTS, ALLOC, LOAD, READONLY, CODE
  2 .rodata       00000000  08000794  0800079c  0000179c  2**0
                  CONTENTS, ALLOC, LOAD, DATA
  3 .ARM.extab    00000000  08000794  08000794  0000179c  2**0
                  CONTENTS, READONLY
  4 .ARM          00000000  08000794  08000794  0000179c  2**0
                  CONTENTS, READONLY
  5 .preinit_array 00000000  08000794  0800079c  0000179c  2**0
                  CONTENTS, ALLOC, LOAD, DATA
  6 .init_array   00000004  08000794  08000794  00001794  2**2
                  CONTENTS, ALLOC, LOAD, READONLY, DATA
  7 .fini_array   00000004  08000798  08000798  00001798  2**2
                  CONTENTS, ALLOC, LOAD, READONLY, DATA
  8 .data         00000000  20000000  20000000  0000179c  2**0
                  CONTENTS, ALLOC, LOAD, DATA
  9 .bss          00000060  20000000  0800079c  00002000  2**2
                  ALLOC
 10 ._user_heap_stack 00000600  20000060  0800079c  00002060  2**0
                  ALLOC
 11 .ARM.attributes 00000030  00000000  00000000  0000179c  2**0
                  CONTENTS, READONLY
 12 .debug_info   00000681  00000000  00000000  000017cc  2**0
                  CONTENTS, READONLY, DEBUGGING, OCTETS
 13 .debug_abbrev 00000417  00000000  00000000  00001e4d  2**0
                  CONTENTS, READONLY, DEBUGGING, OCTETS
 14 .debug_aranges 00000128  00000000  00000000  00002268  2**3
                  CONTENTS, READONLY, DEBUGGING, OCTETS
 15 .debug_rnglists 000000c7  00000000  00000000  00002390  2**0
                  CONTENTS, READONLY, DEBUGGING, OCTETS
 16 .debug_macro  000013fa  00000000  00000000  00002457  2**0
                  CONTENTS, READONLY, DEBUGGING, OCTETS
 17 .debug_line   000014a9  00000000  00000000  00003851  2**0
                  CONTENTS, READONLY, DEBUGGING, OCTETS
 18 .debug_str    00004b22  00000000  00000000  00004cfa  2**0
                  CONTENTS, READONLY, DEBUGGING, OCTETS
 19 .comment      00000043  00000000  00000000  0000981c  2**0
                  CONTENTS, READONLY
 20 .debug_frame  0000030c  00000000  00000000  00009860  2**2
                  CONTENTS, READONLY, DEBUGGING, OCTETS
 21 .debug_line_str 00000065  00000000  00000000  00009b6c  2**0
                  CONTENTS, READONLY, DEBUGGING, OCTETS

Disassembly of section .text:

080001c8 <__do_global_dtors_aux>:
 80001c8:	b510      	push	{r4, lr}
 80001ca:	4c05      	ldr	r4, [pc, #20]	@ (80001e0 <__do_global_dtors_aux+0x18>)
 80001cc:	7823      	ldrb	r3, [r4, #0]
 80001ce:	b933      	cbnz	r3, 80001de <__do_global_dtors_aux+0x16>
 80001d0:	4b04      	ldr	r3, [pc, #16]	@ (80001e4 <__do_global_dtors_aux+0x1c>)
 80001d2:	b113      	cbz	r3, 80001da <__do_global_dtors_aux+0x12>
 80001d4:	4804      	ldr	r0, [pc, #16]	@ (80001e8 <__do_global_dtors_aux+0x20>)
 80001d6:	f3af 8000 	nop.w
 80001da:	2301      	movs	r3, #1
 80001dc:	7023      	strb	r3, [r4, #0]
 80001de:	bd10      	pop	{r4, pc}
 80001e0:	20000000 	.word	0x20000000
 80001e4:	00000000 	.word	0x00000000
 80001e8:	0800077c 	.word	0x0800077c

080001ec <frame_dummy>:
 80001ec:	b508      	push	{r3, lr}
 80001ee:	4b03      	ldr	r3, [pc, #12]	@ (80001fc <frame_dummy+0x10>)
 80001f0:	b11b      	cbz	r3, 80001fa <frame_dummy+0xe>
 80001f2:	4903      	ldr	r1, [pc, #12]	@ (8000200 <frame_dummy+0x14>)
 80001f4:	4803      	ldr	r0, [pc, #12]	@ (8000204 <frame_dummy+0x18>)
 80001f6:	f3af 8000 	nop.w
 80001fa:	bd08      	pop	{r3, pc}
 80001fc:	00000000 	.word	0x00000000
 8000200:	20000004 	.word	0x20000004
 8000204:	0800077c 	.word	0x0800077c

08000208 <adc_init>:
#define ADC_SQR1_L_Msk   	(0xF << 20)
#define ADC_SQR3_SQ1_Msk	(0x1F << 0)
#define RCC_ADCEN			(1<<8)


void adc_init(void){
 8000208:	b480      	push	{r7}
 800020a:	af00      	add	r7, sp, #0
	//ADC modulune saat iznini ver enable et
	RCC_APB2 |= RCC_ADCEN;
 800020c:	4b13      	ldr	r3, [pc, #76]	@ (800025c <adc_init+0x54>)
 800020e:	681b      	ldr	r3, [r3, #0]
 8000210:	4a12      	ldr	r2, [pc, #72]	@ (800025c <adc_init+0x54>)
 8000212:	f443 7380 	orr.w	r3, r3, #256	@ 0x100
 8000216:	6013      	str	r3, [r2, #0]
    //   GPIOA_MODER |=	(1U<<1);


	// veri çözünürlüğünü ayarla

	ADC_CR1 |= (1<<24);
 8000218:	4b11      	ldr	r3, [pc, #68]	@ (8000260 <adc_init+0x58>)
 800021a:	681b      	ldr	r3, [r3, #0]
 800021c:	4a10      	ldr	r2, [pc, #64]	@ (8000260 <adc_init+0x58>)
 800021e:	f043 7380 	orr.w	r3, r3, #16777216	@ 0x1000000
 8000222:	6013      	str	r3, [r2, #0]
	ADC_CR1 &= ~(1<<25);
 8000224:	4b0e      	ldr	r3, [pc, #56]	@ (8000260 <adc_init+0x58>)
 8000226:	681b      	ldr	r3, [r3, #0]
 8000228:	4a0d      	ldr	r2, [pc, #52]	@ (8000260 <adc_init+0x58>)
 800022a:	f023 7300 	bic.w	r3, r3, #33554432	@ 0x2000000
 800022e:	6013      	str	r3, [r2, #0]

	//kanalı seç
	// 1. Adım: SQR3 register'ının ilk 5 bitini (SQ1) temizle/sıfırla
	ADC_SQR3 &= ~(0x1F);
 8000230:	4b0c      	ldr	r3, [pc, #48]	@ (8000264 <adc_init+0x5c>)
 8000232:	681b      	ldr	r3, [r3, #0]
 8000234:	4a0b      	ldr	r2, [pc, #44]	@ (8000264 <adc_init+0x5c>)
 8000236:	f023 031f 	bic.w	r3, r3, #31
 800023a:	6013      	str	r3, [r2, #0]

	// 2. Adım: Kanal 0'ı seçmek için oraya '0' değerini yaz (Matematiksel olarak etkisiz olsa da mantığı budur)
	ADC_SQR3 |= (0 << 0);
 800023c:	4b09      	ldr	r3, [pc, #36]	@ (8000264 <adc_init+0x5c>)
 800023e:	4a09      	ldr	r2, [pc, #36]	@ (8000264 <adc_init+0x5c>)
 8000240:	681b      	ldr	r3, [r3, #0]
 8000242:	6013      	str	r3, [r2, #0]
	// adc modülünü etkinleştir

	ADC_CR2 |= ADC_CR2_ADON;
 8000244:	4b08      	ldr	r3, [pc, #32]	@ (8000268 <adc_init+0x60>)
 8000246:	681b      	ldr	r3, [r3, #0]
 8000248:	4a07      	ldr	r2, [pc, #28]	@ (8000268 <adc_init+0x60>)
 800024a:	f043 0301 	orr.w	r3, r3, #1
 800024e:	6013      	str	r3, [r2, #0]
}
 8000250:	bf00      	nop
 8000252:	46bd      	mov	sp, r7
 8000254:	f85d 7b04 	ldr.w	r7, [sp], #4
 8000258:	4770      	bx	lr
 800025a:	bf00      	nop
 800025c:	40023844 	.word	0x40023844
 8000260:	40012004 	.word	0x40012004
 8000264:	40012034 	.word	0x40012034
 8000268:	40012008 	.word	0x40012008

0800026c <adc_conversion>:
void adc_conversion(void){
 800026c:	b480      	push	{r7}
 800026e:	af00      	add	r7, sp, #0
	//Continuous moda ayarla
	ADC_CR2 |= ADC_CR2_CONT;
 8000270:	4b08      	ldr	r3, [pc, #32]	@ (8000294 <adc_conversion+0x28>)
 8000272:	681b      	ldr	r3, [r3, #0]
 8000274:	4a07      	ldr	r2, [pc, #28]	@ (8000294 <adc_conversion+0x28>)
 8000276:	f043 0302 	orr.w	r3, r3, #2
 800027a:	6013      	str	r3, [r2, #0]

	//donusumu baslat

	ADC_CR2 |=ADC_CR2_SWSTART;
 800027c:	4b05      	ldr	r3, [pc, #20]	@ (8000294 <adc_conversion+0x28>)
 800027e:	681b      	ldr	r3, [r3, #0]
 8000280:	4a04      	ldr	r2, [pc, #16]	@ (8000294 <adc_conversion+0x28>)
 8000282:	f043 4380 	orr.w	r3, r3, #1073741824	@ 0x40000000
 8000286:	6013      	str	r3, [r2, #0]

}
 8000288:	bf00      	nop
 800028a:	46bd      	mov	sp, r7
 800028c:	f85d 7b04 	ldr.w	r7, [sp], #4
 8000290:	4770      	bx	lr
 8000292:	bf00      	nop
 8000294:	40012008 	.word	0x40012008

08000298 <adc_read>:
uint8_t adc_read(void){
 8000298:	b480      	push	{r7}
 800029a:	af00      	add	r7, sp, #0

	while(!(ADC_SR & ADC_SR_EOC)){
 800029c:	bf00      	nop
 800029e:	4b07      	ldr	r3, [pc, #28]	@ (80002bc <adc_read+0x24>)
 80002a0:	681b      	ldr	r3, [r3, #0]
 80002a2:	f003 0302 	and.w	r3, r3, #2
 80002a6:	2b00      	cmp	r3, #0
 80002a8:	d0f9      	beq.n	800029e <adc_read+0x6>
		;
	}

	return ADC_DR;
 80002aa:	4b05      	ldr	r3, [pc, #20]	@ (80002c0 <adc_read+0x28>)
 80002ac:	681b      	ldr	r3, [r3, #0]
 80002ae:	b2db      	uxtb	r3, r3
}
 80002b0:	4618      	mov	r0, r3
 80002b2:	46bd      	mov	sp, r7
 80002b4:	f85d 7b04 	ldr.w	r7, [sp], #4
 80002b8:	4770      	bx	lr
 80002ba:	bf00      	nop
 80002bc:	40012000 	.word	0x40012000
 80002c0:	4001204c 	.word	0x4001204c

080002c4 <adc_sample_signal>:

void adc_sample_signal(char *buff, uint8_t prgrm_state){
 80002c4:	b580      	push	{r7, lr}
 80002c6:	b086      	sub	sp, #24
 80002c8:	af00      	add	r7, sp, #0
 80002ca:	6078      	str	r0, [r7, #4]
 80002cc:	460b      	mov	r3, r1
 80002ce:	70fb      	strb	r3, [r7, #3]
	char byte_one;
	int uart_byte;

	if(prgrm_state == ON){
 80002d0:	78fb      	ldrb	r3, [r7, #3]
 80002d2:	2b31      	cmp	r3, #49	@ 0x31
 80002d4:	d118      	bne.n	8000308 <adc_sample_signal+0x44>
		char *ptr = buff;
 80002d6:	687b      	ldr	r3, [r7, #4]
 80002d8:	613b      	str	r3, [r7, #16]

		for (int x = 0; x < 64; x++){
 80002da:	2300      	movs	r3, #0
 80002dc:	617b      	str	r3, [r7, #20]
 80002de:	e00d      	b.n	80002fc <adc_sample_signal+0x38>

			uart_byte = adc_read();
 80002e0:	f7ff ffda 	bl	8000298 <adc_read>
 80002e4:	4603      	mov	r3, r0
 80002e6:	60fb      	str	r3, [r7, #12]
			byte_one = (uart_byte & 0xFF);
 80002e8:	68fb      	ldr	r3, [r7, #12]
 80002ea:	72fb      	strb	r3, [r7, #11]


			*buff++ = byte_one;
 80002ec:	687b      	ldr	r3, [r7, #4]
 80002ee:	1c5a      	adds	r2, r3, #1
 80002f0:	607a      	str	r2, [r7, #4]
 80002f2:	7afa      	ldrb	r2, [r7, #11]
 80002f4:	701a      	strb	r2, [r3, #0]
		for (int x = 0; x < 64; x++){
 80002f6:	697b      	ldr	r3, [r7, #20]
 80002f8:	3301      	adds	r3, #1
 80002fa:	617b      	str	r3, [r7, #20]
 80002fc:	697b      	ldr	r3, [r7, #20]
 80002fe:	2b3f      	cmp	r3, #63	@ 0x3f
 8000300:	ddee      	ble.n	80002e0 <adc_sample_signal+0x1c>
		}

        // ptr başlangıç adresini tutuyordu, onu gönderiyoruz.
		adc_transmit_signal(ptr);
 8000302:	6938      	ldr	r0, [r7, #16]
 8000304:	f000 f804 	bl	8000310 <adc_transmit_signal>
	}
}
 8000308:	bf00      	nop
 800030a:	3718      	adds	r7, #24
 800030c:	46bd      	mov	sp, r7
 800030e:	bd80      	pop	{r7, pc}

08000310 <adc_transmit_signal>:
void adc_transmit_signal(char * buff){
 8000310:	b580      	push	{r7, lr}
 8000312:	b084      	sub	sp, #16
 8000314:	af00      	add	r7, sp, #0
 8000316:	6078      	str	r0, [r7, #4]

	for(int x = 0; x < 64; x++){
 8000318:	2300      	movs	r3, #0
 800031a:	60fb      	str	r3, [r7, #12]
 800031c:	e03f      	b.n	800039e <adc_transmit_signal+0x8e>
		// 1. Diziden ham veriyi al (Örn: Sayısal 65)
		uint8_t number = (uint8_t)(*buff++);
 800031e:	687b      	ldr	r3, [r7, #4]
 8000320:	1c5a      	adds	r2, r3, #1
 8000322:	607a      	str	r2, [r7, #4]
 8000324:	781b      	ldrb	r3, [r3, #0]
 8000326:	72fb      	strb	r3, [r7, #11]

		// 2. Yüzler, Onlar ve Birler basamağını hesapla
		// '0' eklememizin sebebi, rakamı ASCII karaktere çevirmektir.
		char hundreds = (number / 100) + '0';
 8000328:	7afb      	ldrb	r3, [r7, #11]
 800032a:	4a21      	ldr	r2, [pc, #132]	@ (80003b0 <adc_transmit_signal+0xa0>)
 800032c:	fba2 2303 	umull	r2, r3, r2, r3
 8000330:	095b      	lsrs	r3, r3, #5
 8000332:	b2db      	uxtb	r3, r3
 8000334:	3330      	adds	r3, #48	@ 0x30
 8000336:	72bb      	strb	r3, [r7, #10]
		char tens     = ((number % 100) / 10) + '0';
 8000338:	7afb      	ldrb	r3, [r7, #11]
 800033a:	4a1d      	ldr	r2, [pc, #116]	@ (80003b0 <adc_transmit_signal+0xa0>)
 800033c:	fba2 1203 	umull	r1, r2, r2, r3
 8000340:	0952      	lsrs	r2, r2, #5
 8000342:	2164      	movs	r1, #100	@ 0x64
 8000344:	fb01 f202 	mul.w	r2, r1, r2
 8000348:	1a9b      	subs	r3, r3, r2
 800034a:	b2db      	uxtb	r3, r3
 800034c:	4a19      	ldr	r2, [pc, #100]	@ (80003b4 <adc_transmit_signal+0xa4>)
 800034e:	fba2 2303 	umull	r2, r3, r2, r3
 8000352:	08db      	lsrs	r3, r3, #3
 8000354:	b2db      	uxtb	r3, r3
 8000356:	3330      	adds	r3, #48	@ 0x30
 8000358:	727b      	strb	r3, [r7, #9]
		char ones     = (number % 10) + '0';
 800035a:	7afa      	ldrb	r2, [r7, #11]
 800035c:	4b15      	ldr	r3, [pc, #84]	@ (80003b4 <adc_transmit_signal+0xa4>)
 800035e:	fba3 1302 	umull	r1, r3, r3, r2
 8000362:	08d9      	lsrs	r1, r3, #3
 8000364:	460b      	mov	r3, r1
 8000366:	009b      	lsls	r3, r3, #2
 8000368:	440b      	add	r3, r1
 800036a:	005b      	lsls	r3, r3, #1
 800036c:	1ad3      	subs	r3, r2, r3
 800036e:	b2db      	uxtb	r3, r3
 8000370:	3330      	adds	r3, #48	@ 0x30
 8000372:	723b      	strb	r3, [r7, #8]

		// 3. Basamakları sırayla gönder
		usart2_write(hundreds);
 8000374:	7abb      	ldrb	r3, [r7, #10]
 8000376:	4618      	mov	r0, r3
 8000378:	f000 f982 	bl	8000680 <usart2_write>
		usart2_write(tens);
 800037c:	7a7b      	ldrb	r3, [r7, #9]
 800037e:	4618      	mov	r0, r3
 8000380:	f000 f97e 	bl	8000680 <usart2_write>
		usart2_write(ones);
 8000384:	7a3b      	ldrb	r3, [r7, #8]
 8000386:	4618      	mov	r0, r3
 8000388:	f000 f97a 	bl	8000680 <usart2_write>

		// 4. Okunabilir olsun diye yanına boşluk veya alt satır ekle
		// Alt satıra geçmek için:
		usart2_write('\r');
 800038c:	200d      	movs	r0, #13
 800038e:	f000 f977 	bl	8000680 <usart2_write>
		usart2_write('\n');
 8000392:	200a      	movs	r0, #10
 8000394:	f000 f974 	bl	8000680 <usart2_write>
	for(int x = 0; x < 64; x++){
 8000398:	68fb      	ldr	r3, [r7, #12]
 800039a:	3301      	adds	r3, #1
 800039c:	60fb      	str	r3, [r7, #12]
 800039e:	68fb      	ldr	r3, [r7, #12]
 80003a0:	2b3f      	cmp	r3, #63	@ 0x3f
 80003a2:	ddbc      	ble.n	800031e <adc_transmit_signal+0xe>

		// Eğer yan yana yazdırmak istersen yukarıdaki \r\n yerine:
		// usart2_write(' '); // Boşluk
	}
}
 80003a4:	bf00      	nop
 80003a6:	bf00      	nop
 80003a8:	3710      	adds	r7, #16
 80003aa:	46bd      	mov	sp, r7
 80003ac:	bd80      	pop	{r7, pc}
 80003ae:	bf00      	nop
 80003b0:	51eb851f 	.word	0x51eb851f
 80003b4:	cccccccd 	.word	0xcccccccd

080003b8 <gpio_init>:
#define BLUE_LED 	GPIOB5
#define USER_BUTTON	GPIOC13
#define USER_LED	GPIOA5
volatile int x ;

void gpio_init(void) {
 80003b8:	b480      	push	{r7}
 80003ba:	af00      	add	r7, sp, #0
    // GPIO saat erişimini etkinleştir
    RCC_AHB1ENR |= GPIOAEN;
 80003bc:	4b41      	ldr	r3, [pc, #260]	@ (80004c4 <gpio_init+0x10c>)
 80003be:	681b      	ldr	r3, [r3, #0]
 80003c0:	4a40      	ldr	r2, [pc, #256]	@ (80004c4 <gpio_init+0x10c>)
 80003c2:	f043 0301 	orr.w	r3, r3, #1
 80003c6:	6013      	str	r3, [r2, #0]
    RCC_AHB1ENR |= GPIOBEN;
 80003c8:	4b3e      	ldr	r3, [pc, #248]	@ (80004c4 <gpio_init+0x10c>)
 80003ca:	681b      	ldr	r3, [r3, #0]
 80003cc:	4a3d      	ldr	r2, [pc, #244]	@ (80004c4 <gpio_init+0x10c>)
 80003ce:	f043 0302 	orr.w	r3, r3, #2
 80003d2:	6013      	str	r3, [r2, #0]
    RCC_AHB1ENR |= GPIOCEN;
 80003d4:	4b3b      	ldr	r3, [pc, #236]	@ (80004c4 <gpio_init+0x10c>)
 80003d6:	681b      	ldr	r3, [r3, #0]
 80003d8:	4a3a      	ldr	r2, [pc, #232]	@ (80004c4 <gpio_init+0x10c>)
 80003da:	f043 0304 	orr.w	r3, r3, #4
 80003de:	6013      	str	r3, [r2, #0]

    // LED pinleri
    GPIOA_MODER |= (1U << 16);
 80003e0:	4b39      	ldr	r3, [pc, #228]	@ (80004c8 <gpio_init+0x110>)
 80003e2:	681b      	ldr	r3, [r3, #0]
 80003e4:	4a38      	ldr	r2, [pc, #224]	@ (80004c8 <gpio_init+0x110>)
 80003e6:	f443 3380 	orr.w	r3, r3, #65536	@ 0x10000
 80003ea:	6013      	str	r3, [r2, #0]
    GPIOA_MODER &= ~(1U << 17);
 80003ec:	4b36      	ldr	r3, [pc, #216]	@ (80004c8 <gpio_init+0x110>)
 80003ee:	681b      	ldr	r3, [r3, #0]
 80003f0:	4a35      	ldr	r2, [pc, #212]	@ (80004c8 <gpio_init+0x110>)
 80003f2:	f423 3300 	bic.w	r3, r3, #131072	@ 0x20000
 80003f6:	6013      	str	r3, [r2, #0]

    GPIOB_MODER |= (1U << 10);
 80003f8:	4b34      	ldr	r3, [pc, #208]	@ (80004cc <gpio_init+0x114>)
 80003fa:	681b      	ldr	r3, [r3, #0]
 80003fc:	4a33      	ldr	r2, [pc, #204]	@ (80004cc <gpio_init+0x114>)
 80003fe:	f443 6380 	orr.w	r3, r3, #1024	@ 0x400
 8000402:	6013      	str	r3, [r2, #0]
    GPIOB_MODER &= ~(1U << 11);
 8000404:	4b31      	ldr	r3, [pc, #196]	@ (80004cc <gpio_init+0x114>)
 8000406:	681b      	ldr	r3, [r3, #0]
 8000408:	4a30      	ldr	r2, [pc, #192]	@ (80004cc <gpio_init+0x114>)
 800040a:	f423 6300 	bic.w	r3, r3, #2048	@ 0x800
 800040e:	6013      	str	r3, [r2, #0]

    GPIOC_MODER &= ~(1U << 26);
 8000410:	4b2f      	ldr	r3, [pc, #188]	@ (80004d0 <gpio_init+0x118>)
 8000412:	681b      	ldr	r3, [r3, #0]
 8000414:	4a2e      	ldr	r2, [pc, #184]	@ (80004d0 <gpio_init+0x118>)
 8000416:	f023 6380 	bic.w	r3, r3, #67108864	@ 0x4000000
 800041a:	6013      	str	r3, [r2, #0]
    GPIOC_MODER &= ~(1U << 27);
 800041c:	4b2c      	ldr	r3, [pc, #176]	@ (80004d0 <gpio_init+0x118>)
 800041e:	681b      	ldr	r3, [r3, #0]
 8000420:	4a2b      	ldr	r2, [pc, #172]	@ (80004d0 <gpio_init+0x118>)
 8000422:	f023 6300 	bic.w	r3, r3, #134217728	@ 0x8000000
 8000426:	6013      	str	r3, [r2, #0]

    GPIOA_MODER |= (1U << 10);
 8000428:	4b27      	ldr	r3, [pc, #156]	@ (80004c8 <gpio_init+0x110>)
 800042a:	681b      	ldr	r3, [r3, #0]
 800042c:	4a26      	ldr	r2, [pc, #152]	@ (80004c8 <gpio_init+0x110>)
 800042e:	f443 6380 	orr.w	r3, r3, #1024	@ 0x400
 8000432:	6013      	str	r3, [r2, #0]
    GPIOA_MODER &= ~(1U << 11);
 8000434:	4b24      	ldr	r3, [pc, #144]	@ (80004c8 <gpio_init+0x110>)
 8000436:	681b      	ldr	r3, [r3, #0]
 8000438:	4a23      	ldr	r2, [pc, #140]	@ (80004c8 <gpio_init+0x110>)
 800043a:	f423 6300 	bic.w	r3, r3, #2048	@ 0x800
 800043e:	6013      	str	r3, [r2, #0]

    // PA2 - USART2_TX (Alternate Function Mode)
    GPIOA_MODER &= ~(3U << (2 * 2));
 8000440:	4b21      	ldr	r3, [pc, #132]	@ (80004c8 <gpio_init+0x110>)
 8000442:	681b      	ldr	r3, [r3, #0]
 8000444:	4a20      	ldr	r2, [pc, #128]	@ (80004c8 <gpio_init+0x110>)
 8000446:	f023 0330 	bic.w	r3, r3, #48	@ 0x30
 800044a:	6013      	str	r3, [r2, #0]
    GPIOA_MODER |=  (2U << (2 * 2));
 800044c:	4b1e      	ldr	r3, [pc, #120]	@ (80004c8 <gpio_init+0x110>)
 800044e:	681b      	ldr	r3, [r3, #0]
 8000450:	4a1d      	ldr	r2, [pc, #116]	@ (80004c8 <gpio_init+0x110>)
 8000452:	f043 0320 	orr.w	r3, r3, #32
 8000456:	6013      	str	r3, [r2, #0]

    // PA3 - USART2_RX (Alternate Function Mode)
    GPIOA_MODER &= ~(3U << (3 * 2));
 8000458:	4b1b      	ldr	r3, [pc, #108]	@ (80004c8 <gpio_init+0x110>)
 800045a:	681b      	ldr	r3, [r3, #0]
 800045c:	4a1a      	ldr	r2, [pc, #104]	@ (80004c8 <gpio_init+0x110>)
 800045e:	f023 03c0 	bic.w	r3, r3, #192	@ 0xc0
 8000462:	6013      	str	r3, [r2, #0]
    GPIOA_MODER |=  (2U << (3 * 2));
 8000464:	4b18      	ldr	r3, [pc, #96]	@ (80004c8 <gpio_init+0x110>)
 8000466:	681b      	ldr	r3, [r3, #0]
 8000468:	4a17      	ldr	r2, [pc, #92]	@ (80004c8 <gpio_init+0x110>)
 800046a:	f043 0380 	orr.w	r3, r3, #128	@ 0x80
 800046e:	6013      	str	r3, [r2, #0]

    // **ÖNEMLİ: Alternate Function Seçimi**
    // PA2 için AF7 (USART2_TX)
    GPIOA_AFRL &= ~(0xFU << (2 * 4));
 8000470:	4b18      	ldr	r3, [pc, #96]	@ (80004d4 <gpio_init+0x11c>)
 8000472:	681b      	ldr	r3, [r3, #0]
 8000474:	4a17      	ldr	r2, [pc, #92]	@ (80004d4 <gpio_init+0x11c>)
 8000476:	f423 6370 	bic.w	r3, r3, #3840	@ 0xf00
 800047a:	6013      	str	r3, [r2, #0]
    GPIOA_AFRL |=  (7U << (2 * 4));
 800047c:	4b15      	ldr	r3, [pc, #84]	@ (80004d4 <gpio_init+0x11c>)
 800047e:	681b      	ldr	r3, [r3, #0]
 8000480:	4a14      	ldr	r2, [pc, #80]	@ (80004d4 <gpio_init+0x11c>)
 8000482:	f443 63e0 	orr.w	r3, r3, #1792	@ 0x700
 8000486:	6013      	str	r3, [r2, #0]

    // PA3 için AF7 (USART2_RX)
    GPIOA_AFRL &= ~(0xFU << (3 * 4));
 8000488:	4b12      	ldr	r3, [pc, #72]	@ (80004d4 <gpio_init+0x11c>)
 800048a:	681b      	ldr	r3, [r3, #0]
 800048c:	4a11      	ldr	r2, [pc, #68]	@ (80004d4 <gpio_init+0x11c>)
 800048e:	f423 4370 	bic.w	r3, r3, #61440	@ 0xf000
 8000492:	6013      	str	r3, [r2, #0]
    GPIOA_AFRL |=  (7U << (3 * 4));
 8000494:	4b0f      	ldr	r3, [pc, #60]	@ (80004d4 <gpio_init+0x11c>)
 8000496:	681b      	ldr	r3, [r3, #0]
 8000498:	4a0e      	ldr	r2, [pc, #56]	@ (80004d4 <gpio_init+0x11c>)
 800049a:	f443 43e0 	orr.w	r3, r3, #28672	@ 0x7000
 800049e:	6013      	str	r3, [r2, #0]

    GPIOA_MODER |=	(1U<<0);
 80004a0:	4b09      	ldr	r3, [pc, #36]	@ (80004c8 <gpio_init+0x110>)
 80004a2:	681b      	ldr	r3, [r3, #0]
 80004a4:	4a08      	ldr	r2, [pc, #32]	@ (80004c8 <gpio_init+0x110>)
 80004a6:	f043 0301 	orr.w	r3, r3, #1
 80004aa:	6013      	str	r3, [r2, #0]
    GPIOA_MODER |=	(1U<<1);
 80004ac:	4b06      	ldr	r3, [pc, #24]	@ (80004c8 <gpio_init+0x110>)
 80004ae:	681b      	ldr	r3, [r3, #0]
 80004b0:	4a05      	ldr	r2, [pc, #20]	@ (80004c8 <gpio_init+0x110>)
 80004b2:	f043 0302 	orr.w	r3, r3, #2
 80004b6:	6013      	str	r3, [r2, #0]



}
 80004b8:	bf00      	nop
 80004ba:	46bd      	mov	sp, r7
 80004bc:	f85d 7b04 	ldr.w	r7, [sp], #4
 80004c0:	4770      	bx	lr
 80004c2:	bf00      	nop
 80004c4:	40023830 	.word	0x40023830
 80004c8:	40020000 	.word	0x40020000
 80004cc:	40020400 	.word	0x40020400
 80004d0:	40020800 	.word	0x40020800
 80004d4:	40020020 	.word	0x40020020

080004d8 <red_led_on>:
void red_led_on	(void){
 80004d8:	b480      	push	{r7}
 80004da:	af00      	add	r7, sp, #0

	GPIOA_ODR |= RED_LED;
 80004dc:	4b05      	ldr	r3, [pc, #20]	@ (80004f4 <red_led_on+0x1c>)
 80004de:	681b      	ldr	r3, [r3, #0]
 80004e0:	4a04      	ldr	r2, [pc, #16]	@ (80004f4 <red_led_on+0x1c>)
 80004e2:	f443 7380 	orr.w	r3, r3, #256	@ 0x100
 80004e6:	6013      	str	r3, [r2, #0]


}
 80004e8:	bf00      	nop
 80004ea:	46bd      	mov	sp, r7
 80004ec:	f85d 7b04 	ldr.w	r7, [sp], #4
 80004f0:	4770      	bx	lr
 80004f2:	bf00      	nop
 80004f4:	40020014 	.word	0x40020014

080004f8 <red_led_off>:
void red_led_off(void){
 80004f8:	b480      	push	{r7}
 80004fa:	af00      	add	r7, sp, #0

	GPIOA_ODR &= ~(RED_LED);
 80004fc:	4b05      	ldr	r3, [pc, #20]	@ (8000514 <red_led_off+0x1c>)
 80004fe:	681b      	ldr	r3, [r3, #0]
 8000500:	4a04      	ldr	r2, [pc, #16]	@ (8000514 <red_led_off+0x1c>)
 8000502:	f423 7380 	bic.w	r3, r3, #256	@ 0x100
 8000506:	6013      	str	r3, [r2, #0]
}
 8000508:	bf00      	nop
 800050a:	46bd      	mov	sp, r7
 800050c:	f85d 7b04 	ldr.w	r7, [sp], #4
 8000510:	4770      	bx	lr
 8000512:	bf00      	nop
 8000514:	40020014 	.word	0x40020014

08000518 <blue_led_on>:
void blue_led_on(void){
 8000518:	b480      	push	{r7}
 800051a:	af00      	add	r7, sp, #0
	GPIOB_ODR|= BLUE_LED;
 800051c:	4b05      	ldr	r3, [pc, #20]	@ (8000534 <blue_led_on+0x1c>)
 800051e:	681b      	ldr	r3, [r3, #0]
 8000520:	4a04      	ldr	r2, [pc, #16]	@ (8000534 <blue_led_on+0x1c>)
 8000522:	f043 0320 	orr.w	r3, r3, #32
 8000526:	6013      	str	r3, [r2, #0]
}
 8000528:	bf00      	nop
 800052a:	46bd      	mov	sp, r7
 800052c:	f85d 7b04 	ldr.w	r7, [sp], #4
 8000530:	4770      	bx	lr
 8000532:	bf00      	nop
 8000534:	40020414 	.word	0x40020414

08000538 <blue_led_off>:
void blue_led_off(void){
 8000538:	b480      	push	{r7}
 800053a:	af00      	add	r7, sp, #0
	GPIOB_ODR &= ~(BLUE_LED);
 800053c:	4b05      	ldr	r3, [pc, #20]	@ (8000554 <blue_led_off+0x1c>)
 800053e:	681b      	ldr	r3, [r3, #0]
 8000540:	4a04      	ldr	r2, [pc, #16]	@ (8000554 <blue_led_off+0x1c>)
 8000542:	f023 0320 	bic.w	r3, r3, #32
 8000546:	6013      	str	r3, [r2, #0]
}
 8000548:	bf00      	nop
 800054a:	46bd      	mov	sp, r7
 800054c:	f85d 7b04 	ldr.w	r7, [sp], #4
 8000550:	4770      	bx	lr
 8000552:	bf00      	nop
 8000554:	40020414 	.word	0x40020414

08000558 <prgrm_state_set>:

	GPIOA_ODR ^= USER_LED;
	led_delay();
}

void prgrm_state_set(uint8_t *prgrm_state) {
 8000558:	b480      	push	{r7}
 800055a:	b083      	sub	sp, #12
 800055c:	af00      	add	r7, sp, #0
 800055e:	6078      	str	r0, [r7, #4]
	if (!(GPIOC_IDR & USER_BUTTON)) {
 8000560:	4b0d      	ldr	r3, [pc, #52]	@ (8000598 <prgrm_state_set+0x40>)
 8000562:	681b      	ldr	r3, [r3, #0]
 8000564:	f403 5300 	and.w	r3, r3, #8192	@ 0x2000
 8000568:	2b00      	cmp	r3, #0
 800056a:	d10e      	bne.n	800058a <prgrm_state_set+0x32>
		if (*prgrm_state == ON) {
 800056c:	687b      	ldr	r3, [r7, #4]
 800056e:	781b      	ldrb	r3, [r3, #0]
 8000570:	2b31      	cmp	r3, #49	@ 0x31
 8000572:	d103      	bne.n	800057c <prgrm_state_set+0x24>
			*prgrm_state = OFF;
 8000574:	687b      	ldr	r3, [r7, #4]
 8000576:	2230      	movs	r2, #48	@ 0x30
 8000578:	701a      	strb	r2, [r3, #0]
		} else if (*prgrm_state == OFF) {
			*prgrm_state = ON;
		}
	}
}
 800057a:	e006      	b.n	800058a <prgrm_state_set+0x32>
		} else if (*prgrm_state == OFF) {
 800057c:	687b      	ldr	r3, [r7, #4]
 800057e:	781b      	ldrb	r3, [r3, #0]
 8000580:	2b30      	cmp	r3, #48	@ 0x30
 8000582:	d102      	bne.n	800058a <prgrm_state_set+0x32>
			*prgrm_state = ON;
 8000584:	687b      	ldr	r3, [r7, #4]
 8000586:	2231      	movs	r2, #49	@ 0x31
 8000588:	701a      	strb	r2, [r3, #0]
}
 800058a:	bf00      	nop
 800058c:	370c      	adds	r7, #12
 800058e:	46bd      	mov	sp, r7
 8000590:	f85d 7b04 	ldr.w	r7, [sp], #4
 8000594:	4770      	bx	lr
 8000596:	bf00      	nop
 8000598:	40020810 	.word	0x40020810

0800059c <prgrm_state_display>:
void prgrm_state_display(uint8_t *prgrm_state){
 800059c:	b580      	push	{r7, lr}
 800059e:	b082      	sub	sp, #8
 80005a0:	af00      	add	r7, sp, #0
 80005a2:	6078      	str	r0, [r7, #4]

	if(*prgrm_state== ON){
 80005a4:	687b      	ldr	r3, [r7, #4]
 80005a6:	781b      	ldrb	r3, [r3, #0]
 80005a8:	2b31      	cmp	r3, #49	@ 0x31
 80005aa:	d104      	bne.n	80005b6 <prgrm_state_display+0x1a>
		red_led_on();
 80005ac:	f7ff ff94 	bl	80004d8 <red_led_on>
		blue_led_off();
 80005b0:	f7ff ffc2 	bl	8000538 <blue_led_off>
	}else if (* prgrm_state== OFF){
			red_led_off();
			blue_led_on();
		}

}
 80005b4:	e007      	b.n	80005c6 <prgrm_state_display+0x2a>
	}else if (* prgrm_state== OFF){
 80005b6:	687b      	ldr	r3, [r7, #4]
 80005b8:	781b      	ldrb	r3, [r3, #0]
 80005ba:	2b30      	cmp	r3, #48	@ 0x30
 80005bc:	d103      	bne.n	80005c6 <prgrm_state_display+0x2a>
			red_led_off();
 80005be:	f7ff ff9b 	bl	80004f8 <red_led_off>
			blue_led_on();
 80005c2:	f7ff ffa9 	bl	8000518 <blue_led_on>
}
 80005c6:	bf00      	nop
 80005c8:	3708      	adds	r7, #8
 80005ca:	46bd      	mov	sp, r7
 80005cc:	bd80      	pop	{r7, pc}
	...

080005d0 <main>:

void usart2_write_string(const char *str);
char buff[64];
char adc_value;
int main(void)
{
 80005d0:	b580      	push	{r7, lr}
 80005d2:	b082      	sub	sp, #8
 80005d4:	af00      	add	r7, sp, #0
    gpio_init();
 80005d6:	f7ff feef 	bl	80003b8 <gpio_init>
    usart2_init();
 80005da:	f000 f829 	bl	8000630 <usart2_init>
    adc_init();
 80005de:	f7ff fe13 	bl	8000208 <adc_init>
    adc_conversion();
 80005e2:	f7ff fe43 	bl	800026c <adc_conversion>

    uint8_t prgrm_state = OFF;
 80005e6:	2330      	movs	r3, #48	@ 0x30
 80005e8:	71fb      	strb	r3, [r7, #7]
    while (1)
    {

    	//usart2_write_string("HELLO\r\n");

         prgrm_state_set(&prgrm_state);
 80005ea:	1dfb      	adds	r3, r7, #7
 80005ec:	4618      	mov	r0, r3
 80005ee:	f7ff ffb3 	bl	8000558 <prgrm_state_set>
         prgrm_state_display(&prgrm_state);
 80005f2:	1dfb      	adds	r3, r7, #7
 80005f4:	4618      	mov	r0, r3
 80005f6:	f7ff ffd1 	bl	800059c <prgrm_state_display>
    	adc_sample_signal(buff, prgrm_state);
 80005fa:	79fb      	ldrb	r3, [r7, #7]
 80005fc:	4619      	mov	r1, r3
 80005fe:	4809      	ldr	r0, [pc, #36]	@ (8000624 <main+0x54>)
 8000600:	f7ff fe60 	bl	80002c4 <adc_sample_signal>
		adc_value=buff[0];
 8000604:	4b07      	ldr	r3, [pc, #28]	@ (8000624 <main+0x54>)
 8000606:	781a      	ldrb	r2, [r3, #0]
 8000608:	4b07      	ldr	r3, [pc, #28]	@ (8000628 <main+0x58>)
 800060a:	701a      	strb	r2, [r3, #0]
		for (volatile int i = 0; i < 1000000; i++)
 800060c:	2300      	movs	r3, #0
 800060e:	603b      	str	r3, [r7, #0]
 8000610:	e002      	b.n	8000618 <main+0x48>
 8000612:	683b      	ldr	r3, [r7, #0]
 8000614:	3301      	adds	r3, #1
 8000616:	603b      	str	r3, [r7, #0]
 8000618:	683b      	ldr	r3, [r7, #0]
 800061a:	4a04      	ldr	r2, [pc, #16]	@ (800062c <main+0x5c>)
 800061c:	4293      	cmp	r3, r2
 800061e:	ddf8      	ble.n	8000612 <main+0x42>
         prgrm_state_set(&prgrm_state);
 8000620:	e7e3      	b.n	80005ea <main+0x1a>
 8000622:	bf00      	nop
 8000624:	2000001c 	.word	0x2000001c
 8000628:	2000005c 	.word	0x2000005c
 800062c:	000f423f 	.word	0x000f423f

08000630 <usart2_init>:
#define SYS_CLK 16000000U

#define APB1_CLK		SYS_CLK
#define UART_BAUDRATE 	9600

void usart2_init(void){
 8000630:	b580      	push	{r7, lr}
 8000632:	af00      	add	r7, sp, #0
	//GPIO çevresel birimine izin ver usart2 için(SAAT)
		RCC_APB1ENR  |= RCC_USART2_EN;
 8000634:	4b0f      	ldr	r3, [pc, #60]	@ (8000674 <usart2_init+0x44>)
 8000636:	681b      	ldr	r3, [r3, #0]
 8000638:	4a0e      	ldr	r2, [pc, #56]	@ (8000674 <usart2_init+0x44>)
 800063a:	f443 3300 	orr.w	r3, r3, #131072	@ 0x20000
 800063e:	6013      	str	r3, [r2, #0]

	//usart2 yi altarnatif fonksiyon olarak belirle
	//baudrate hızını ayarla
		usart_set_baudrate(SYS_CLK, UART_BAUDRATE);
 8000640:	f44f 5116 	mov.w	r1, #9600	@ 0x2580
 8000644:	480c      	ldr	r0, [pc, #48]	@ (8000678 <usart2_init+0x48>)
 8000646:	f000 f835 	bl	80006b4 <usart_set_baudrate>
	//tx ve rx tranfer fonksiyonlarını etkinleştir cr1 içindeki
		USART2_CR1 |=	CR1_TE;
 800064a:	4b0c      	ldr	r3, [pc, #48]	@ (800067c <usart2_init+0x4c>)
 800064c:	681b      	ldr	r3, [r3, #0]
 800064e:	4a0b      	ldr	r2, [pc, #44]	@ (800067c <usart2_init+0x4c>)
 8000650:	f043 0308 	orr.w	r3, r3, #8
 8000654:	6013      	str	r3, [r2, #0]
		USART2_CR1 |= 	CR1_RE;
 8000656:	4b09      	ldr	r3, [pc, #36]	@ (800067c <usart2_init+0x4c>)
 8000658:	681b      	ldr	r3, [r3, #0]
 800065a:	4a08      	ldr	r2, [pc, #32]	@ (800067c <usart2_init+0x4c>)
 800065c:	f043 0304 	orr.w	r3, r3, #4
 8000660:	6013      	str	r3, [r2, #0]

	//usart2 enable etme
		USART2_CR1 |=	CR1_UE;
 8000662:	4b06      	ldr	r3, [pc, #24]	@ (800067c <usart2_init+0x4c>)
 8000664:	681b      	ldr	r3, [r3, #0]
 8000666:	4a05      	ldr	r2, [pc, #20]	@ (800067c <usart2_init+0x4c>)
 8000668:	f443 5300 	orr.w	r3, r3, #8192	@ 0x2000
 800066c:	6013      	str	r3, [r2, #0]

}
 800066e:	bf00      	nop
 8000670:	bd80      	pop	{r7, pc}
 8000672:	bf00      	nop
 8000674:	40023840 	.word	0x40023840
 8000678:	00f42400 	.word	0x00f42400
 800067c:	4000440c 	.word	0x4000440c

08000680 <usart2_write>:
void usart2_write(char ch) {
 8000680:	b480      	push	{r7}
 8000682:	b083      	sub	sp, #12
 8000684:	af00      	add	r7, sp, #0
 8000686:	4603      	mov	r3, r0
 8000688:	71fb      	strb	r3, [r7, #7]
    // TXE (Transmit Data Register Empty) bayrağı 1 olana kadar bekle.
    // Döngü içi boş; sadece donanımın hazır olmasını bekliyoruz.
    while(!(USART2_SR & SR_TXE)) {
 800068a:	bf00      	nop
 800068c:	4b07      	ldr	r3, [pc, #28]	@ (80006ac <usart2_write+0x2c>)
 800068e:	681b      	ldr	r3, [r3, #0]
 8000690:	f003 0380 	and.w	r3, r3, #128	@ 0x80
 8000694:	2b00      	cmp	r3, #0
 8000696:	d0f9      	beq.n	800068c <usart2_write+0xc>
        // Bekle...
    }

    // Donanım hazır, veriyi gönder.
    USART2_DR = (ch & 0xFF);
 8000698:	4a05      	ldr	r2, [pc, #20]	@ (80006b0 <usart2_write+0x30>)
 800069a:	79fb      	ldrb	r3, [r7, #7]
 800069c:	6013      	str	r3, [r2, #0]
}
 800069e:	bf00      	nop
 80006a0:	370c      	adds	r7, #12
 80006a2:	46bd      	mov	sp, r7
 80006a4:	f85d 7b04 	ldr.w	r7, [sp], #4
 80006a8:	4770      	bx	lr
 80006aa:	bf00      	nop
 80006ac:	40004400 	.word	0x40004400
 80006b0:	40004404 	.word	0x40004404

080006b4 <usart_set_baudrate>:
    while(!(USART2_SR & SR_RXNE))
        ;
    return (uint8_t)USART2_DR;
}
void usart_set_baudrate(uint32_t pclk, uint32_t baud)
{
 80006b4:	b480      	push	{r7}
 80006b6:	b083      	sub	sp, #12
 80006b8:	af00      	add	r7, sp, #0
 80006ba:	6078      	str	r0, [r7, #4]
 80006bc:	6039      	str	r1, [r7, #0]
    USART2_BRR = ((pclk + (baud/2U)) / baud);
 80006be:	683b      	ldr	r3, [r7, #0]
 80006c0:	085a      	lsrs	r2, r3, #1
 80006c2:	687b      	ldr	r3, [r7, #4]
 80006c4:	441a      	add	r2, r3
 80006c6:	4905      	ldr	r1, [pc, #20]	@ (80006dc <usart_set_baudrate+0x28>)
 80006c8:	683b      	ldr	r3, [r7, #0]
 80006ca:	fbb2 f3f3 	udiv	r3, r2, r3
 80006ce:	600b      	str	r3, [r1, #0]
}
 80006d0:	bf00      	nop
 80006d2:	370c      	adds	r7, #12
 80006d4:	46bd      	mov	sp, r7
 80006d6:	f85d 7b04 	ldr.w	r7, [sp], #4
 80006da:	4770      	bx	lr
 80006dc:	40004408 	.word	0x40004408

080006e0 <Reset_Handler>:

  .section .text.Reset_Handler
  .weak Reset_Handler
  .type Reset_Handler, %function
Reset_Handler:
  ldr   r0, =_estack
 80006e0:	480d      	ldr	r0, [pc, #52]	@ (8000718 <LoopForever+0x2>)
  mov   sp, r0          /* set stack pointer */
 80006e2:	4685      	mov	sp, r0
/* Call the clock system initialization function.*/
  bl  SystemInit
 80006e4:	f3af 8000 	nop.w

/* Copy the data segment initializers from flash to SRAM */
  ldr r0, =_sdata
 80006e8:	480c      	ldr	r0, [pc, #48]	@ (800071c <LoopForever+0x6>)
  ldr r1, =_edata
 80006ea:	490d      	ldr	r1, [pc, #52]	@ (8000720 <LoopForever+0xa>)
  ldr r2, =_sidata
 80006ec:	4a0d      	ldr	r2, [pc, #52]	@ (8000724 <LoopForever+0xe>)
  movs r3, #0
 80006ee:	2300      	movs	r3, #0
  b LoopCopyDataInit
 80006f0:	e002      	b.n	80006f8 <LoopCopyDataInit>

080006f2 <CopyDataInit>:

CopyDataInit:
  ldr r4, [r2, r3]
 80006f2:	58d4      	ldr	r4, [r2, r3]
  str r4, [r0, r3]
 80006f4:	50c4      	str	r4, [r0, r3]
  adds r3, r3, #4
 80006f6:	3304      	adds	r3, #4

080006f8 <LoopCopyDataInit>:

LoopCopyDataInit:
  adds r4, r0, r3
 80006f8:	18c4      	adds	r4, r0, r3
  cmp r4, r1
 80006fa:	428c      	cmp	r4, r1
  bcc CopyDataInit
 80006fc:	d3f9      	bcc.n	80006f2 <CopyDataInit>

/* Zero fill the bss segment. */
  ldr r2, =_sbss
 80006fe:	4a0a      	ldr	r2, [pc, #40]	@ (8000728 <LoopForever+0x12>)
  ldr r4, =_ebss
 8000700:	4c0a      	ldr	r4, [pc, #40]	@ (800072c <LoopForever+0x16>)
  movs r3, #0
 8000702:	2300      	movs	r3, #0
  b LoopFillZerobss
 8000704:	e001      	b.n	800070a <LoopFillZerobss>

08000706 <FillZerobss>:

FillZerobss:
  str  r3, [r2]
 8000706:	6013      	str	r3, [r2, #0]
  adds r2, r2, #4
 8000708:	3204      	adds	r2, #4

0800070a <LoopFillZerobss>:

LoopFillZerobss:
  cmp r2, r4
 800070a:	42a2      	cmp	r2, r4
  bcc FillZerobss
 800070c:	d3fb      	bcc.n	8000706 <FillZerobss>


/* Call static constructors */
  bl __libc_init_array
 800070e:	f000 f811 	bl	8000734 <__libc_init_array>
/* Call the application's entry point.*/

  bl main
 8000712:	f7ff ff5d 	bl	80005d0 <main>

08000716 <LoopForever>:

LoopForever:
  b LoopForever
 8000716:	e7fe      	b.n	8000716 <LoopForever>
  ldr   r0, =_estack
 8000718:	20008000 	.word	0x20008000
  ldr r0, =_sdata
 800071c:	20000000 	.word	0x20000000
  ldr r1, =_edata
 8000720:	20000000 	.word	0x20000000
  ldr r2, =_sidata
 8000724:	0800079c 	.word	0x0800079c
  ldr r2, =_sbss
 8000728:	20000000 	.word	0x20000000
  ldr r4, =_ebss
 800072c:	20000060 	.word	0x20000060

08000730 <ADC_IRQHandler>:
 * @retval : None
*/
  .section .text.Default_Handler,"ax",%progbits
Default_Handler:
Infinite_Loop:
  b Infinite_Loop
 8000730:	e7fe      	b.n	8000730 <ADC_IRQHandler>
	...

08000734 <__libc_init_array>:
 8000734:	b570      	push	{r4, r5, r6, lr}
 8000736:	4d0d      	ldr	r5, [pc, #52]	@ (800076c <__libc_init_array+0x38>)
 8000738:	4c0d      	ldr	r4, [pc, #52]	@ (8000770 <__libc_init_array+0x3c>)
 800073a:	1b64      	subs	r4, r4, r5
 800073c:	10a4      	asrs	r4, r4, #2
 800073e:	2600      	movs	r6, #0
 8000740:	42a6      	cmp	r6, r4
 8000742:	d109      	bne.n	8000758 <__libc_init_array+0x24>
 8000744:	4d0b      	ldr	r5, [pc, #44]	@ (8000774 <__libc_init_array+0x40>)
 8000746:	4c0c      	ldr	r4, [pc, #48]	@ (8000778 <__libc_init_array+0x44>)
 8000748:	f000 f818 	bl	800077c <_init>
 800074c:	1b64      	subs	r4, r4, r5
 800074e:	10a4      	asrs	r4, r4, #2
 8000750:	2600      	movs	r6, #0
 8000752:	42a6      	cmp	r6, r4
 8000754:	d105      	bne.n	8000762 <__libc_init_array+0x2e>
 8000756:	bd70      	pop	{r4, r5, r6, pc}
 8000758:	f855 3b04 	ldr.w	r3, [r5], #4
 800075c:	4798      	blx	r3
 800075e:	3601      	adds	r6, #1
 8000760:	e7ee      	b.n	8000740 <__libc_init_array+0xc>
 8000762:	f855 3b04 	ldr.w	r3, [r5], #4
 8000766:	4798      	blx	r3
 8000768:	3601      	adds	r6, #1
 800076a:	e7f2      	b.n	8000752 <__libc_init_array+0x1e>
 800076c:	08000794 	.word	0x08000794
 8000770:	08000794 	.word	0x08000794
 8000774:	08000794 	.word	0x08000794
 8000778:	08000798 	.word	0x08000798

0800077c <_init>:
 800077c:	b5f8      	push	{r3, r4, r5, r6, r7, lr}
 800077e:	bf00      	nop
 8000780:	bcf8      	pop	{r3, r4, r5, r6, r7}
 8000782:	bc08      	pop	{r3}
 8000784:	469e      	mov	lr, r3
 8000786:	4770      	bx	lr

08000788 <_fini>:
 8000788:	b5f8      	push	{r3, r4, r5, r6, r7, lr}
 800078a:	bf00      	nop
 800078c:	bcf8      	pop	{r3, r4, r5, r6, r7}
 800078e:	bc08      	pop	{r3}
 8000790:	469e      	mov	lr, r3
 8000792:	4770      	bx	lr
